; Function Attrs: mustprogress nofree norecurse nosync nounwind willreturn memory(argmem: readwrite) uwtable
define hidden void @_ZN13ReservedSpace10first_partEmm(ptr dead_on_unwind noalias nocapture writable writeonly sret(%class.ReservedSpace) align 8 %0, ptr nocapture noundef nonnull readonly align 8 dereferenceable(49) %1, i64 noundef %2, i64 noundef %3) local_unnamed_addr #3 align 2 {
  %5 = load ptr, ptr %1, align 8
  %6 = getelementptr inbounds i8, ptr %1, i64 32
  %7 = load i64, ptr %6, align 8
  %8 = getelementptr inbounds i8, ptr %1, i64 40
  %9 = load i8, ptr %8, align 8
  %10 = getelementptr inbounds i8, ptr %1, i64 48
  %11 = load i8, ptr %10, align 8
  %12 = getelementptr inbounds i8, ptr %0, i64 44
  store i32 -1, ptr %12, align 4
  %13 = and i8 %9, 1
  %14 = and i8 %11, 1
  store ptr %5, ptr %0, align 8
  %15 = getelementptr inbounds i8, ptr %0, i64 8
  store i64 %2, ptr %15, align 8
  %16 = getelementptr inbounds i8, ptr %0, i64 24
  store i64 %3, ptr %16, align 8
  %17 = getelementptr inbounds i8, ptr %0, i64 32
  store i64 %7, ptr %17, align 8
  %18 = getelementptr inbounds i8, ptr %0, i64 40
  store i8 %13, ptr %18, align 8
  %19 = getelementptr inbounds i8, ptr %0, i64 48
  store i8 %14, ptr %19, align 8
  %20 = getelementptr inbounds i8, ptr %0, i64 16
  store i64 0, ptr %20, align 8
  ret void
}